; Function Attrs: mustprogress nofree norecurse nosync nounwind willreturn memory(read, argmem: readwrite, inaccessiblemem: none) uwtable
define hidden void @_ZN16SATBMarkQueueSet39set_buffer_enqueue_threshold_percentageEj(ptr nocapture noundef nonnull align 8 dereferenceable(393) %0, i32 noundef %1) local_unnamed_addr #5 align 2 {
  %3 = getelementptr inbounds i8, ptr %0, i64 8
  %4 = load ptr, ptr %3, align 8
  %5 = getelementptr inbounds i8, ptr %4, i64 16
  %6 = load i64, ptr %5, align 8
  %7 = zext i32 %1 to i64
  %8 = mul i64 %6, %7
  %9 = udiv i64 %8, 100
  %10 = sub i64 %6, %9
  %11 = tail call noundef i64 @llvm.umax.i64(i64 %10, i64 1)
  %12 = getelementptr inbounds i8, ptr %0, i64 288
  store i64 %11, ptr %12, align 8
  ret void
}